; ModuleID = 'source-C-CXX/57/1292.c'
source_filename = "source-C-CXX/57/1292.c"
target datalayout = "e-m:e-p270:32:32-p271:32:32-p272:64:64-i64:64-f80:128-n8:16:32:64-S128"
target triple = "x86_64-pc-linux-gnu"

@.str = private unnamed_addr constant [4 x i8] c"%d\0A\00", align 1

; Function Attrs: nofree nounwind sspstrong uwtable
define dso_local void @fun(i8* nocapture readonly %0) local_unnamed_addr #0 {
  %2 = load i8, i8* %0, align 1, !tbaa !5
  %3 = icmp eq i8 %2, 95
  br i1 %3, label %9, label %4

4:                                                ; preds = %1
  %5 = icmp sgt i8 %2, 64
  br i1 %5, label %6, label %9

6:                                                ; preds = %4
  %7 = icmp slt i8 %2, 123
  %8 = zext i1 %7 to i32
  br label %9

9:                                                ; preds = %4, %6, %1
  %10 = phi i32 [ 1, %1 ], [ 0, %4 ], [ %8, %6 ]
  %11 = tail call i32 (i8*, ...) @printf(i8* nonnull dereferenceable(1) getelementptr inbounds ([4 x i8], [4 x i8]* @.str, i64 0, i64 0), i32 %10)
  ret void
}

; Function Attrs: argmemonly mustprogress nofree nosync nounwind willreturn
declare void @llvm.lifetime.start.p0i8(i64 immarg, i8* nocapture) #1

; Function Attrs: nofree nounwind
declare noundef i32 @printf(i8* nocapture noundef readonly, ...) local_unnamed_addr #2

; Function Attrs: argmemonly mustprogress nofree nosync nounwind willreturn
declare void @llvm.lifetime.end.p0i8(i64 immarg, i8* nocapture) #1

; Function Attrs: nounwind sspstrong uwtable
define dso_local i32 @main() local_unnamed_addr #3 {
  %1 = alloca i32, align 4
  %2 = alloca [81 x i8], align 16
  %3 = bitcast i32* %1 to i8*
  call void @llvm.lifetime.start.p0i8(i64 4, i8* nonnull %3) #5
  %4 = call i32 (i8*, ...) @__isoc99_scanf(i8* getelementptr inbounds ([4 x i8], [4 x i8]* @.str, i64 0, i64 0), i32* nonnull %1)
  %5 = getelementptr inbounds [81 x i8], [81 x i8]* %2, i64 0, i64 0
  call void @llvm.lifetime.start.p0i8(i64 81, i8* nonnull %5) #5
  %6 = load i32, i32* %1, align 4, !tbaa !8
  %7 = icmp slt i32 %6, 1
  br i1 %7, label %24, label %8

8:                                                ; preds = %0, %18
  %9 = phi i32 [ %21, %18 ], [ 1, %0 ]
  %10 = call i32 (i8*, ...) bitcast (i32 (...)* @gets to i32 (i8*, ...)*)(i8* nonnull %5) #5
  %11 = load i8, i8* %5, align 16, !tbaa !5
  %12 = icmp eq i8 %11, 95
  br i1 %12, label %18, label %13

13:                                               ; preds = %8
  %14 = icmp sgt i8 %11, 64
  br i1 %14, label %15, label %18

15:                                               ; preds = %13
  %16 = icmp slt i8 %11, 123
  %17 = zext i1 %16 to i32
  br label %18

18:                                               ; preds = %8, %13, %15
  %19 = phi i32 [ 1, %8 ], [ 0, %13 ], [ %17, %15 ]
  %20 = call i32 (i8*, ...) @printf(i8* nonnull dereferenceable(1) getelementptr inbounds ([4 x i8], [4 x i8]* @.str, i64 0, i64 0), i32 %19) #5
  %21 = add nuw nsw i32 %9, 1
  %22 = load i32, i32* %1, align 4, !tbaa !8
  %23 = icmp slt i32 %9, %22
  br i1 %23, label %8, label %24, !llvm.loop !10

24:                                               ; preds = %18, %0
  call void @llvm.lifetime.end.p0i8(i64 81, i8* nonnull %5) #5
  call void @llvm.lifetime.end.p0i8(i64 4, i8* nonnull %3) #5
  ret i32 0
}

; Function Attrs: nofree nounwind
declare noundef i32 @__isoc99_scanf(i8* nocapture noundef readonly, ...) local_unnamed_addr #2

declare i32 @gets(...) local_unnamed_addr #4


!llvm.module.flags = !{!0, !1, !2, !3}
!llvm.ident = !{!4}

!0 = !{i32 1, !"wchar_size", i32 4}
!1 = !{i32 7, !"PIC Level", i32 2}
!2 = !{i32 7, !"PIE Level", i32 2}
!3 = !{i32 7, !"uwtable", i32 1}
!4 = !{!"clang version 13.0.0"}
!5 = !{!6, !6, i64 0}
!6 = !{!"omnipotent char", !7, i64 0}
!7 = !{!"Simple C/C++ TBAA"}
!8 = !{!9, !9, i64 0}
!9 = !{!"int", !6, i64 0}
!10 = distinct !{!10, !11}
!11 = !{!"llvm.loop.mustprogress"}
